target datalayout = "e-m:e-p270:32:32-p271:32:32-p272:64:64-i64:64-i128:128-f80:128-n8:16:32:64-S128"
target triple = "x86_64-pc-linux-gnu"

; Function Attrs: nounwind uwtable
define internal i64 @X11_PickTargetFromAtoms(ptr noundef %0, i64 noundef %1, i64 noundef %2, i64 noundef %3) #0 {
  %5 = alloca ptr, align 8
  %6 = alloca i64, align 8
  %7 = alloca i64, align 8
  %8 = alloca i64, align 8
  %9 = alloca i32, align 4
  %10 = alloca [3 x i64], align 16
  store ptr %0, ptr %5, align 8
  store i64 %1, ptr %6, align 8
  store i64 %2, ptr %7, align 8
  store i64 %3, ptr %8, align 8
  call void @llvm.lifetime.start.p0(i64 4, ptr %9) #7
  store i32 0, ptr %9, align 4
  call void @llvm.lifetime.start.p0(i64 24, ptr %10) #7
  %11 = load i64, ptr %6, align 8
  %12 = icmp ne i64 %11, 0
  br i1 %12, label %13, label %19

13:                                               ; preds = %4
  %14 = load i64, ptr %6, align 8
  %15 = load i32, ptr %9, align 4
  %16 = add nsw i32 %15, 1
  store i32 %16, ptr %9, align 4
  %17 = sext i32 %15 to i64
  %18 = getelementptr inbounds [3 x i64], ptr %10, i64 0, i64 %17
  store i64 %14, ptr %18, align 8
  br label %19

19:                                               ; preds = %13, %4
  %20 = load i64, ptr %7, align 8
  %21 = icmp ne i64 %20, 0
  br i1 %21, label %22, label %28

22:                                               ; preds = %19
  %23 = load i64, ptr %7, align 8
  %24 = load i32, ptr %9, align 4
  %25 = add nsw i32 %24, 1
  store i32 %25, ptr %9, align 4
  %26 = sext i32 %24 to i64
  %27 = getelementptr inbounds [3 x i64], ptr %10, i64 0, i64 %26
  store i64 %23, ptr %27, align 8
  br label %28

28:                                               ; preds = %22, %19
  %29 = load i64, ptr %8, align 8
  %30 = icmp ne i64 %29, 0
  br i1 %30, label %31, label %37

31:                                               ; preds = %28
  %32 = load i64, ptr %8, align 8
  %33 = load i32, ptr %9, align 4
  %34 = add nsw i32 %33, 1
  store i32 %34, ptr %9, align 4
  %35 = sext i32 %33 to i64
  %36 = getelementptr inbounds [3 x i64], ptr %10, i64 0, i64 %35
  store i64 %32, ptr %36, align 8
  br label %37

37:                                               ; preds = %31, %28
  %38 = load ptr, ptr %5, align 8
  %39 = getelementptr inbounds [3 x i64], ptr %10, i64 0, i64 0
  %40 = load i32, ptr %9, align 4
  %41 = call i64 @X11_PickTarget(ptr noundef %38, ptr noundef %39, i32 noundef %40)
  call void @llvm.lifetime.end.p0(i64 24, ptr %10) #7
  call void @llvm.lifetime.end.p0(i64 4, ptr %9) #7
  ret i64 %41
}