; Function Attrs: nounwind uwtable
define internal fastcc i64 @X11_PickTargetFromAtoms(ptr noundef %0, i64 noundef %1, i64 noundef %2, i64 noundef %3) unnamed_addr #1 {
  %5 = alloca [3 x i64], align 16
  call void @llvm.lifetime.start.p0(i64 24, ptr nonnull %5) #12
  %.not = icmp eq i64 %1, 0
  br i1 %.not, label %7, label %6

6:                                                ; preds = %4
  store i64 %1, ptr %5, align 16
  br label %7

7:                                                ; preds = %6, %4
  %.0 = phi i32 [ 1, %6 ], [ 0, %4 ]
  %.not13 = icmp eq i64 %2, 0
  br i1 %.not13, label %12, label %8

8:                                                ; preds = %7
  %9 = add nuw nsw i32 %.0, 1
  %10 = zext nneg i32 %.0 to i64
  %11 = getelementptr inbounds nuw [3 x i64], ptr %5, i64 0, i64 %10
  store i64 %2, ptr %11, align 8
  br label %12

12:                                               ; preds = %8, %7
  %.1 = phi i32 [ %9, %8 ], [ %.0, %7 ]
  %.not14 = icmp eq i64 %3, 0
  br i1 %.not14, label %17, label %13

13:                                               ; preds = %12
  %14 = add nuw nsw i32 %.1, 1
  %15 = zext nneg i32 %.1 to i64
  %16 = getelementptr inbounds nuw [3 x i64], ptr %5, i64 0, i64 %15
  store i64 %3, ptr %16, align 8
  br label %17

17:                                               ; preds = %13, %12
  %.2 = phi i32 [ %14, %13 ], [ %.1, %12 ]
  %18 = call fastcc i64 @X11_PickTarget(ptr noundef %0, ptr noundef nonnull %5, i32 noundef %.2)
  call void @llvm.lifetime.end.p0(i64 24, ptr nonnull %5) #12
  ret i64 %18
}